; ModuleID = 'source-C-CXX/55/614.c'
source_filename = "source-C-CXX/55/614.c"
target datalayout = "e-m:e-p270:32:32-p271:32:32-p272:64:64-i64:64-f80:128-n8:16:32:64-S128"
target triple = "x86_64-pc-linux-gnu"

@.str = private unnamed_addr constant [3 x i8] c"%d\00", align 1
@.str.1 = private unnamed_addr constant [5 x i8] c"%d%d\00", align 1
@.str.2 = private unnamed_addr constant [7 x i8] c"%d%d%d\00", align 1
@.str.3 = private unnamed_addr constant [9 x i8] c"%d%d%d%d\00", align 1
@.str.4 = private unnamed_addr constant [11 x i8] c"%d%d%d%d%d\00", align 1

; Function Attrs: nofree nounwind sspstrong uwtable
define dso_local i32 @main(i32 %0, i8** nocapture readnone %1) local_unnamed_addr #0 {
  %3 = alloca i32, align 4
  %4 = bitcast i32* %3 to i8*
  call void @llvm.lifetime.start.p0i8(i64 4, i8* nonnull %4) #3
  %5 = call i32 (i8*, ...) @__isoc99_scanf(i8* getelementptr inbounds ([3 x i8], [3 x i8]* @.str, i64 0, i64 0), i32* nonnull %3)
  %6 = load i32, i32* %3, align 4, !tbaa !5
  %7 = sdiv i32 %6, 10000
  %8 = srem i32 %6, 10000
  %9 = trunc i32 %8 to i16
  %10 = sdiv i16 %9, 1000
  %11 = sext i16 %10 to i32
  %12 = srem i16 %9, 1000
  %13 = sdiv i16 %12, 100
  %14 = sext i16 %13 to i32
  %15 = srem i16 %12, 100
  %16 = trunc i16 %15 to i8
  %17 = sdiv i8 %16, 10
  %18 = sext i8 %17 to i32
  %19 = srem i8 %16, 10
  %20 = sext i8 %19 to i32
  %21 = mul nsw i32 %20, 10000
  %22 = mul nsw i32 %18, 1000
  %23 = mul nsw i32 %14, 100
  %24 = mul nsw i32 %11, 10
  %25 = add nsw i32 %24, %7
  %26 = add nsw i32 %25, %23
  %27 = add nsw i32 %26, %22
  %28 = add nsw i32 %27, %21
  %29 = srem i32 %28, 10
  %30 = srem i32 %28, 1000
  %31 = srem i32 %28, 10000
  %32 = icmp eq i32 %29, 0
  br i1 %32, label %33, label %48

33:                                               ; preds = %2
  %34 = srem i32 %28, 100
  %35 = icmp eq i32 %34, 0
  br i1 %35, label %36, label %46

36:                                               ; preds = %33
  %37 = icmp eq i32 %30, 0
  br i1 %37, label %38, label %44

38:                                               ; preds = %36
  %39 = icmp eq i32 %31, 0
  br i1 %39, label %40, label %42

40:                                               ; preds = %38
  %41 = call i32 (i8*, ...) @printf(i8* nonnull dereferenceable(1) getelementptr inbounds ([3 x i8], [3 x i8]* @.str, i64 0, i64 0), i32 %20)
  br label %50

42:                                               ; preds = %38
  %43 = call i32 (i8*, ...) @printf(i8* nonnull dereferenceable(1) getelementptr inbounds ([5 x i8], [5 x i8]* @.str.1, i64 0, i64 0), i32 %20, i32 %18)
  br label %50

44:                                               ; preds = %36
  %45 = call i32 (i8*, ...) @printf(i8* nonnull dereferenceable(1) getelementptr inbounds ([7 x i8], [7 x i8]* @.str.2, i64 0, i64 0), i32 %20, i32 %18, i32 %14)
  br label %50

46:                                               ; preds = %33
  %47 = call i32 (i8*, ...) @printf(i8* nonnull dereferenceable(1) getelementptr inbounds ([9 x i8], [9 x i8]* @.str.3, i64 0, i64 0), i32 %20, i32 %18, i32 %14, i32 %11)
  br label %50

48:                                               ; preds = %2
  %49 = call i32 (i8*, ...) @printf(i8* nonnull dereferenceable(1) getelementptr inbounds ([11 x i8], [11 x i8]* @.str.4, i64 0, i64 0), i32 %20, i32 %18, i32 %14, i32 %11, i32 %7)
  br label %50

50:                                               ; preds = %46, %40, %42, %44, %48
  call void @llvm.lifetime.end.p0i8(i64 4, i8* nonnull %4) #3
  ret i32 0
}

; Function Attrs: argmemonly mustprogress nofree nosync nounwind willreturn
declare void @llvm.lifetime.start.p0i8(i64 immarg, i8* nocapture) #1

; Function Attrs: nofree nounwind
declare noundef i32 @__isoc99_scanf(i8* nocapture noundef readonly, ...) local_unnamed_addr #2

; Function Attrs: nofree nounwind
declare noundef i32 @printf(i8* nocapture noundef readonly, ...) local_unnamed_addr #2

; Function Attrs: argmemonly mustprogress nofree nosync nounwind willreturn
declare void @llvm.lifetime.end.p0i8(i64 immarg, i8* nocapture) #1


!llvm.module.flags = !{!0, !1, !2, !3}
!llvm.ident = !{!4}

!0 = !{i32 1, !"wchar_size", i32 4}
!1 = !{i32 7, !"PIC Level", i32 2}
!2 = !{i32 7, !"PIE Level", i32 2}
!3 = !{i32 7, !"uwtable", i32 1}
!4 = !{!"clang version 13.0.0"}
!5 = !{!6, !6, i64 0}
!6 = !{!"int", !7, i64 0}
!7 = !{!"omnipotent char", !8, i64 0}
!8 = !{!"Simple C/C++ TBAA"}
